target datalayout = "e-m:e-p270:32:32-p271:32:32-p272:64:64-i64:64-i128:128-f80:128-n8:16:32:64-S128"
target triple = "x86_64-pc-linux-gnu"

%"struct.duckdb_yyjson::yyjson_alc" = type { ptr, ptr, ptr, ptr }
%"struct.duckdb_yyjson::dyn_ctx" = type { %"struct.duckdb_yyjson::dyn_chunk", %"struct.duckdb_yyjson::dyn_chunk" }
%"struct.duckdb_yyjson::dyn_chunk" = type { i64, ptr }

@__const._ZN13duckdb_yyjsonL11dyn_reallocEPvS0_mm.def = private unnamed_addr constant %"struct.duckdb_yyjson::yyjson_alc" { ptr @_ZN13duckdb_yyjsonL14default_mallocEPvm, ptr @_ZN13duckdb_yyjsonL15default_reallocEPvS0_mm, ptr @_ZN13duckdb_yyjsonL12default_freeEPvS0_, ptr null }, align 8

; Function Attrs: alwaysinline mustprogress nounwind uwtable
define internal noundef zeroext i1 @_ZN13duckdb_yyjsonL12size_is_pow2Em(i64 noundef %0) #7 {
  %2 = alloca i64, align 8
  store i64 %0, ptr %2, align 8, !tbaa !9
  %3 = load i64, ptr %2, align 8, !tbaa !9
  %4 = load i64, ptr %2, align 8, !tbaa !9
  %5 = sub i64 %4, 1
  %6 = and i64 %3, %5
  %7 = icmp eq i64 %6, 0
  ret i1 %7
}

; Function Attrs: alwaysinline mustprogress nounwind uwtable
define internal noundef i64 @_ZN13duckdb_yyjsonL13size_align_upEmm(i64 noundef %0, i64 noundef %1) #7 {
  %3 = alloca i64, align 8
  %4 = alloca i64, align 8
  %5 = alloca i64, align 8
  store i64 %0, ptr %4, align 8, !tbaa !9
  store i64 %1, ptr %5, align 8, !tbaa !9
  %6 = load i64, ptr %5, align 8, !tbaa !9
  %7 = call noundef zeroext i1 @_ZN13duckdb_yyjsonL12size_is_pow2Em(i64 noundef %6)
  br i1 %7, label %8, label %17

8:                                                ; preds = %2
  %9 = load i64, ptr %4, align 8, !tbaa !9
  %10 = load i64, ptr %5, align 8, !tbaa !9
  %11 = sub i64 %10, 1
  %12 = add i64 %9, %11
  %13 = load i64, ptr %5, align 8, !tbaa !9
  %14 = sub i64 %13, 1
  %15 = xor i64 %14, -1
  %16 = and i64 %12, %15
  store i64 %16, ptr %3, align 8
  br label %29

17:                                               ; preds = %2
  %18 = load i64, ptr %4, align 8, !tbaa !9
  %19 = load i64, ptr %5, align 8, !tbaa !9
  %20 = add i64 %18, %19
  %21 = load i64, ptr %4, align 8, !tbaa !9
  %22 = load i64, ptr %5, align 8, !tbaa !9
  %23 = add i64 %21, %22
  %24 = sub i64 %23, 1
  %25 = load i64, ptr %5, align 8, !tbaa !9
  %26 = urem i64 %24, %25
  %27 = sub i64 %20, %26
  %28 = sub i64 %27, 1
  store i64 %28, ptr %3, align 8
  br label %29

29:                                               ; preds = %17, %8
  %30 = load i64, ptr %3, align 8
  ret i64 %30
}

; Function Attrs: alwaysinline mustprogress nounwind uwtable
define internal void @_ZN13duckdb_yyjsonL18dyn_chunk_list_addEPNS_9dyn_chunkES1_(ptr noundef %0, ptr noundef %1) #7 {
  %3 = alloca ptr, align 8
  %4 = alloca ptr, align 8
  store ptr %0, ptr %3, align 8, !tbaa !35
  store ptr %1, ptr %4, align 8, !tbaa !35
  %5 = load ptr, ptr %3, align 8, !tbaa !35
  %6 = getelementptr inbounds nuw %"struct.duckdb_yyjson::dyn_chunk", ptr %5, i32 0, i32 1
  %7 = load ptr, ptr %6, align 8, !tbaa !37
  %8 = load ptr, ptr %4, align 8, !tbaa !35
  %9 = getelementptr inbounds nuw %"struct.duckdb_yyjson::dyn_chunk", ptr %8, i32 0, i32 1
  store ptr %7, ptr %9, align 8, !tbaa !37
  %10 = load ptr, ptr %4, align 8, !tbaa !35
  %11 = load ptr, ptr %3, align 8, !tbaa !35
  %12 = getelementptr inbounds nuw %"struct.duckdb_yyjson::dyn_chunk", ptr %11, i32 0, i32 1
  store ptr %10, ptr %12, align 8, !tbaa !37
  ret void
}

; Function Attrs: alwaysinline mustprogress nounwind uwtable
define internal void @_ZN13duckdb_yyjsonL21dyn_chunk_list_removeEPNS_9dyn_chunkES1_(ptr noundef %0, ptr noundef %1) #7 {
  %3 = alloca ptr, align 8
  %4 = alloca ptr, align 8
  %5 = alloca ptr, align 8
  %6 = alloca ptr, align 8
  %7 = alloca i32, align 4
  store ptr %0, ptr %3, align 8, !tbaa !35
  store ptr %1, ptr %4, align 8, !tbaa !35
  call void @llvm.lifetime.start.p0(i64 8, ptr %5) #15
  %8 = load ptr, ptr %3, align 8, !tbaa !35
  store ptr %8, ptr %5, align 8, !tbaa !35
  call void @llvm.lifetime.start.p0(i64 8, ptr %6) #15
  %9 = load ptr, ptr %5, align 8, !tbaa !35
  %10 = getelementptr inbounds nuw %"struct.duckdb_yyjson::dyn_chunk", ptr %9, i32 0, i32 1
  %11 = load ptr, ptr %10, align 8, !tbaa !37
  store ptr %11, ptr %6, align 8, !tbaa !35
  br label %12

12:                                               ; preds = %29, %2
  %13 = load ptr, ptr %6, align 8, !tbaa !35
  %14 = icmp ne ptr %13, null
  br i1 %14, label %15, label %33

15:                                               ; preds = %12
  %16 = load ptr, ptr %6, align 8, !tbaa !35
  %17 = load ptr, ptr %4, align 8, !tbaa !35
  %18 = icmp eq ptr %16, %17
  br i1 %18, label %19, label %27

19:                                               ; preds = %15
  %20 = load ptr, ptr %6, align 8, !tbaa !35
  %21 = getelementptr inbounds nuw %"struct.duckdb_yyjson::dyn_chunk", ptr %20, i32 0, i32 1
  %22 = load ptr, ptr %21, align 8, !tbaa !37
  %23 = load ptr, ptr %5, align 8, !tbaa !35
  %24 = getelementptr inbounds nuw %"struct.duckdb_yyjson::dyn_chunk", ptr %23, i32 0, i32 1
  store ptr %22, ptr %24, align 8, !tbaa !37
  %25 = load ptr, ptr %6, align 8, !tbaa !35
  %26 = getelementptr inbounds nuw %"struct.duckdb_yyjson::dyn_chunk", ptr %25, i32 0, i32 1
  store ptr null, ptr %26, align 8, !tbaa !37
  store i32 1, ptr %7, align 4
  br label %34

27:                                               ; preds = %15
  %28 = load ptr, ptr %6, align 8, !tbaa !35
  store ptr %28, ptr %5, align 8, !tbaa !35
  br label %29

29:                                               ; preds = %27
  %30 = load ptr, ptr %6, align 8, !tbaa !35
  %31 = getelementptr inbounds nuw %"struct.duckdb_yyjson::dyn_chunk", ptr %30, i32 0, i32 1
  %32 = load ptr, ptr %31, align 8, !tbaa !37
  store ptr %32, ptr %6, align 8, !tbaa !35
  br label %12, !llvm.loop !258

33:                                               ; preds = %12
  store i32 0, ptr %7, align 4
  br label %34

34:                                               ; preds = %33, %19
  call void @llvm.lifetime.end.p0(i64 8, ptr %6) #15
  call void @llvm.lifetime.end.p0(i64 8, ptr %5) #15
  %35 = load i32, ptr %7, align 4
  switch i32 %35, label %37 [
    i32 0, label %36
    i32 1, label %36
  ]

36:                                               ; preds = %34, %34
  ret void

37:                                               ; preds = %34
  unreachable
}

; Function Attrs: alwaysinline mustprogress uwtable
define internal noundef zeroext i1 @_ZN13duckdb_yyjsonL14dyn_size_alignEPm(ptr noundef %0) #5 {
  %2 = alloca i1, align 1
  %3 = alloca ptr, align 8
  %4 = alloca i64, align 8
  %5 = alloca i32, align 4
  store ptr %0, ptr %3, align 8, !tbaa !107
  call void @llvm.lifetime.start.p0(i64 8, ptr %4) #15
  %6 = load ptr, ptr %3, align 8, !tbaa !107
  %7 = load i64, ptr %6, align 8, !tbaa !9
  %8 = add i64 %7, 16
  store i64 %8, ptr %4, align 8, !tbaa !9
  %9 = load i64, ptr %4, align 8, !tbaa !9
  %10 = call noundef i64 @_ZN13duckdb_yyjsonL13size_align_upEmm(i64 noundef %9, i64 noundef 4096)
  store i64 %10, ptr %4, align 8, !tbaa !9
  %11 = load i64, ptr %4, align 8, !tbaa !9
  %12 = load ptr, ptr %3, align 8, !tbaa !107
  %13 = load i64, ptr %12, align 8, !tbaa !9
  %14 = icmp ult i64 %11, %13
  %15 = xor i1 %14, true
  %16 = xor i1 %15, true
  %17 = zext i1 %16 to i64
  %18 = call i64 @llvm.expect.i64(i64 %17, i64 0)
  %19 = icmp ne i64 %18, 0
  br i1 %19, label %20, label %21

20:                                               ; preds = %1
  store i1 false, ptr %2, align 1
  store i32 1, ptr %5, align 4
  br label %24

21:                                               ; preds = %1
  %22 = load i64, ptr %4, align 8, !tbaa !9
  %23 = load ptr, ptr %3, align 8, !tbaa !107
  store i64 %22, ptr %23, align 8, !tbaa !9
  store i1 true, ptr %2, align 1
  store i32 1, ptr %5, align 4
  br label %24

24:                                               ; preds = %21, %20
  call void @llvm.lifetime.end.p0(i64 8, ptr %4) #15
  %25 = load i1, ptr %2, align 1
  ret i1 %25
}

; Function Attrs: mustprogress uwtable
define internal noundef ptr @_ZN13duckdb_yyjsonL11dyn_reallocEPvS0_mm(ptr noundef %0, ptr noundef %1, i64 noundef %2, i64 noundef %3) #1 {
  %5 = alloca ptr, align 8
  %6 = alloca ptr, align 8
  %7 = alloca ptr, align 8
  %8 = alloca i64, align 8
  %9 = alloca i64, align 8
  %10 = alloca %"struct.duckdb_yyjson::yyjson_alc", align 8
  %11 = alloca ptr, align 8
  %12 = alloca ptr, align 8
  %13 = alloca ptr, align 8
  %14 = alloca i32, align 4
  store ptr %0, ptr %6, align 8, !tbaa !8
  store ptr %1, ptr %7, align 8, !tbaa !8
  store i64 %2, ptr %8, align 8, !tbaa !9
  store i64 %3, ptr %9, align 8, !tbaa !9
  call void @llvm.lifetime.start.p0(i64 32, ptr %10) #15
  call void @llvm.memcpy.p0.p0.i64(ptr align 8 %10, ptr align 8 @__const._ZN13duckdb_yyjsonL11dyn_reallocEPvS0_mm.def, i64 32, i1 false)
  call void @llvm.lifetime.start.p0(i64 8, ptr %11) #15
  %15 = load ptr, ptr %6, align 8, !tbaa !8
  store ptr %15, ptr %11, align 8, !tbaa !8
  call void @llvm.lifetime.start.p0(i64 8, ptr %12) #15
  call void @llvm.lifetime.start.p0(i64 8, ptr %13) #15
  %16 = load ptr, ptr %7, align 8, !tbaa !8
  %17 = getelementptr inbounds %"struct.duckdb_yyjson::dyn_chunk", ptr %16, i64 -1
  store ptr %17, ptr %13, align 8, !tbaa !35
  %18 = call noundef zeroext i1 @_ZN13duckdb_yyjsonL14dyn_size_alignEPm(ptr noundef %9)
  %19 = xor i1 %18, true
  %20 = xor i1 %19, true
  %21 = xor i1 %20, true
  %22 = zext i1 %21 to i64
  %23 = call i64 @llvm.expect.i64(i64 %22, i64 0)
  %24 = icmp ne i64 %23, 0
  br i1 %24, label %25, label %26

25:                                               ; preds = %4
  store ptr null, ptr %5, align 8
  store i32 1, ptr %14, align 4
  br label %72

26:                                               ; preds = %4
  %27 = load ptr, ptr %13, align 8, !tbaa !35
  %28 = getelementptr inbounds nuw %"struct.duckdb_yyjson::dyn_chunk", ptr %27, i32 0, i32 0
  %29 = load i64, ptr %28, align 8, !tbaa !36
  %30 = load i64, ptr %9, align 8, !tbaa !9
  %31 = icmp uge i64 %29, %30
  br i1 %31, label %32, label %34

32:                                               ; preds = %26
  %33 = load ptr, ptr %7, align 8, !tbaa !8
  store ptr %33, ptr %5, align 8
  store i32 1, ptr %14, align 4
  br label %72

34:                                               ; preds = %26
  %35 = load ptr, ptr %11, align 8, !tbaa !8
  %36 = getelementptr inbounds nuw %"struct.duckdb_yyjson::dyn_ctx", ptr %35, i32 0, i32 1
  %37 = load ptr, ptr %13, align 8, !tbaa !35
  call void @_ZN13duckdb_yyjsonL21dyn_chunk_list_removeEPNS_9dyn_chunkES1_(ptr noundef %36, ptr noundef %37)
  %38 = getelementptr inbounds nuw %"struct.duckdb_yyjson::yyjson_alc", ptr %10, i32 0, i32 1
  %39 = load ptr, ptr %38, align 8, !tbaa !24
  %40 = getelementptr inbounds nuw %"struct.duckdb_yyjson::yyjson_alc", ptr %10, i32 0, i32 3
  %41 = load ptr, ptr %40, align 8, !tbaa !26
  %42 = load ptr, ptr %13, align 8, !tbaa !35
  %43 = load ptr, ptr %13, align 8, !tbaa !35
  %44 = getelementptr inbounds nuw %"struct.duckdb_yyjson::dyn_chunk", ptr %43, i32 0, i32 0
  %45 = load i64, ptr %44, align 8, !tbaa !36
  %46 = load i64, ptr %9, align 8, !tbaa !9
  %47 = call noundef ptr %39(ptr noundef %41, ptr noundef %42, i64 noundef %45, i64 noundef %46)
  store ptr %47, ptr %12, align 8, !tbaa !35
  %48 = load ptr, ptr %12, align 8, !tbaa !35
  %49 = icmp ne ptr %48, null
  %50 = xor i1 %49, true
  %51 = xor i1 %50, true
  %52 = zext i1 %51 to i64
  %53 = call i64 @llvm.expect.i64(i64 %52, i64 1)
  %54 = icmp ne i64 %53, 0
  br i1 %54, label %55, label %60

55:                                               ; preds = %34
  %56 = load i64, ptr %9, align 8, !tbaa !9
  %57 = load ptr, ptr %12, align 8, !tbaa !35
  %58 = getelementptr inbounds nuw %"struct.duckdb_yyjson::dyn_chunk", ptr %57, i32 0, i32 0
  store i64 %56, ptr %58, align 8, !tbaa !36
  %59 = load ptr, ptr %12, align 8, !tbaa !35
  store ptr %59, ptr %13, align 8, !tbaa !35
  br label %60

60:                                               ; preds = %55, %34
  %61 = load ptr, ptr %11, align 8, !tbaa !8
  %62 = getelementptr inbounds nuw %"struct.duckdb_yyjson::dyn_ctx", ptr %61, i32 0, i32 1
  %63 = load ptr, ptr %13, align 8, !tbaa !35
  call void @_ZN13duckdb_yyjsonL18dyn_chunk_list_addEPNS_9dyn_chunkES1_(ptr noundef %62, ptr noundef %63)
  %64 = load ptr, ptr %12, align 8, !tbaa !35
  %65 = icmp ne ptr %64, null
  br i1 %65, label %66, label %69

66:                                               ; preds = %60
  %67 = load ptr, ptr %12, align 8, !tbaa !35
  %68 = getelementptr inbounds %"struct.duckdb_yyjson::dyn_chunk", ptr %67, i64 1
  br label %70

69:                                               ; preds = %60
  br label %70

70:                                               ; preds = %69, %66
  %71 = phi ptr [ %68, %66 ], [ null, %69 ]
  store ptr %71, ptr %5, align 8
  store i32 1, ptr %14, align 4
  br label %72

72:                                               ; preds = %70, %32, %25
  call void @llvm.lifetime.end.p0(i64 8, ptr %13) #15
  call void @llvm.lifetime.end.p0(i64 8, ptr %12) #15
  call void @llvm.lifetime.end.p0(i64 8, ptr %11) #15
  call void @llvm.lifetime.end.p0(i64 32, ptr %10) #15
  %73 = load ptr, ptr %5, align 8
  ret ptr %73
}